; Function Attrs: mustprogress uwtable
define noundef double @_ZNK5arrow10Decimal1288ToDoubleEi(ptr noundef nonnull align 8 dereferenceable(16) %this, i32 noundef %scale) local_unnamed_addr #0 align 2 {
entry:
  %abs.i = alloca %"class.arrow::Decimal128", align 8
  call void @llvm.lifetime.start.p0(i64 16, ptr nonnull %abs.i)
  %arrayidx.i.i.i.i = getelementptr inbounds i8, ptr %this, i64 8
  %0 = load i64, ptr %arrayidx.i.i.i.i, align 8
  %cmp.i.i = icmp slt i64 %0, 0
  br i1 %cmp.i.i, label %if.then.i, label %if.else.i

if.then.i:                                        ; preds = %entry
  call void @llvm.memcpy.p0.p0.i64(ptr noundef nonnull align 8 dereferenceable(16) %abs.i, ptr noundef nonnull align 8 dereferenceable(16) %this, i64 16, i1 false)
  %call17.i = call noundef nonnull align 8 dereferenceable(16) ptr @_ZN5arrow15BasicDecimal1286NegateEv(ptr noundef nonnull align 8 dereferenceable(16) %abs.i)
  %call18.i = call fastcc noundef double @_ZN5arrow12_GLOBAL__N_124Decimal128RealConversion14ToRealPositiveIdEET_RKNS_10Decimal128Ei(ptr noundef nonnull align 8 dereferenceable(16) %abs.i, i32 noundef %scale)
  %fneg.i = fneg double %call18.i
  br label %_ZN5arrow12_GLOBAL__N_121DecimalRealConversionINS_10Decimal128ENS0_24Decimal128RealConversionEE6ToRealIdEET_RKS2_i.exit

if.else.i:                                        ; preds = %entry
  %call19.i = tail call fastcc noundef double @_ZN5arrow12_GLOBAL__N_124Decimal128RealConversion14ToRealPositiveIdEET_RKNS_10Decimal128Ei(ptr noundef nonnull align 8 dereferenceable(16) %this, i32 noundef %scale)
  br label %_ZN5arrow12_GLOBAL__N_121DecimalRealConversionINS_10Decimal128ENS0_24Decimal128RealConversionEE6ToRealIdEET_RKS2_i.exit

_ZN5arrow12_GLOBAL__N_121DecimalRealConversionINS_10Decimal128ENS0_24Decimal128RealConversionEE6ToRealIdEET_RKS2_i.exit: ; preds = %if.then.i, %if.else.i
  %retval.0.i = phi double [ %fneg.i, %if.then.i ], [ %call19.i, %if.else.i ]
  call void @llvm.lifetime.end.p0(i64 16, ptr nonnull %abs.i)
  ret double %retval.0.i
}